target datalayout = "e-m:e-p270:32:32-p271:32:32-p272:64:64-i64:64-i128:128-f80:128-n8:16:32:64-S128"
target triple = "x86_64-pc-linux-gnu"

; Function Attrs: nounwind uwtable
define internal i32 @HorizontalSum_SSE41(<2 x i64> noundef %0) #1 {
  %2 = alloca <2 x i64>, align 16
  %3 = alloca <4 x i32>, align 16
  %4 = alloca <2 x i64>, align 16
  %5 = alloca <2 x i64>, align 16
  %6 = alloca <2 x i64>, align 16
  %7 = alloca <2 x i64>, align 16
  %8 = alloca <2 x i64>, align 16
  store <2 x i64> %0, ptr %8, align 16
  %9 = load <2 x i64>, ptr %8, align 16
  %10 = load <2 x i64>, ptr %8, align 16
  %11 = bitcast <2 x i64> %10 to <16 x i8>
  %12 = shufflevector <16 x i8> %11, <16 x i8> zeroinitializer, <16 x i32> <i32 8, i32 9, i32 10, i32 11, i32 12, i32 13, i32 14, i32 15, i32 16, i32 17, i32 18, i32 19, i32 20, i32 21, i32 22, i32 23>
  %13 = bitcast <16 x i8> %12 to <2 x i64>
  store <2 x i64> %9, ptr %4, align 16
  store <2 x i64> %13, ptr %5, align 16
  %14 = load <2 x i64>, ptr %4, align 16
  %15 = bitcast <2 x i64> %14 to <4 x i32>
  %16 = load <2 x i64>, ptr %5, align 16
  %17 = bitcast <2 x i64> %16 to <4 x i32>
  %18 = add <4 x i32> %15, %17
  %19 = bitcast <4 x i32> %18 to <2 x i64>
  store <2 x i64> %19, ptr %8, align 16
  %20 = load <2 x i64>, ptr %8, align 16
  %21 = load <2 x i64>, ptr %8, align 16
  %22 = bitcast <2 x i64> %21 to <16 x i8>
  %23 = shufflevector <16 x i8> %22, <16 x i8> zeroinitializer, <16 x i32> <i32 4, i32 5, i32 6, i32 7, i32 8, i32 9, i32 10, i32 11, i32 12, i32 13, i32 14, i32 15, i32 16, i32 17, i32 18, i32 19>
  %24 = bitcast <16 x i8> %23 to <2 x i64>
  store <2 x i64> %20, ptr %6, align 16
  store <2 x i64> %24, ptr %7, align 16
  %25 = load <2 x i64>, ptr %6, align 16
  %26 = bitcast <2 x i64> %25 to <4 x i32>
  %27 = load <2 x i64>, ptr %7, align 16
  %28 = bitcast <2 x i64> %27 to <4 x i32>
  %29 = add <4 x i32> %26, %28
  %30 = bitcast <4 x i32> %29 to <2 x i64>
  store <2 x i64> %30, ptr %8, align 16
  %31 = load <2 x i64>, ptr %8, align 16
  store <2 x i64> %31, ptr %2, align 16
  %32 = load <2 x i64>, ptr %2, align 16
  %33 = bitcast <2 x i64> %32 to <4 x i32>
  store <4 x i32> %33, ptr %3, align 16
  %34 = load <4 x i32>, ptr %3, align 16
  %35 = extractelement <4 x i32> %34, i32 0
  ret i32 %35
}

; Function Attrs: nounwind uwtable
define internal i32 @ExtraCostCombined_SSE41(ptr noundef %0, ptr noundef %1, i32 noundef %2) #1 {
  %4 = alloca <2 x i64>, align 16
  %5 = alloca <2 x i64>, align 16
  %6 = alloca <2 x i64>, align 16
  %7 = alloca <2 x i64>, align 16
  %8 = alloca <2 x i64>, align 16
  %9 = alloca <2 x i64>, align 16
  %10 = alloca <2 x i64>, align 16
  %11 = alloca <2 x i64>, align 16
  %12 = alloca <2 x i64>, align 16
  %13 = alloca <2 x i64>, align 16
  %14 = alloca <2 x i64>, align 16
  %15 = alloca <2 x i64>, align 16
  %16 = alloca ptr, align 8
  %17 = alloca ptr, align 8
  %18 = alloca ptr, align 8
  %19 = alloca ptr, align 8
  %20 = alloca i32, align 4
  %21 = alloca i32, align 4
  %22 = alloca i32, align 4
  %23 = alloca i32, align 4
  %24 = alloca <4 x i32>, align 16
  %25 = alloca i32, align 4
  %26 = alloca i32, align 4
  %27 = alloca i32, align 4
  %28 = alloca i32, align 4
  %29 = alloca <4 x i32>, align 16
  %30 = alloca i32, align 4
  %31 = alloca i32, align 4
  %32 = alloca i32, align 4
  %33 = alloca i32, align 4
  %34 = alloca <4 x i32>, align 16
  %35 = alloca ptr, align 8
  %36 = alloca ptr, align 8
  %37 = alloca i32, align 4
  %38 = alloca i32, align 4
  %39 = alloca <2 x i64>, align 16
  %40 = alloca i32, align 4
  %41 = alloca <2 x i64>, align 16
  %42 = alloca <2 x i64>, align 16
  %43 = alloca <2 x i64>, align 16
  %44 = alloca <2 x i64>, align 16
  %45 = alloca <2 x i64>, align 16
  %46 = alloca <2 x i64>, align 16
  %47 = alloca <2 x i64>, align 16
  %48 = alloca <2 x i64>, align 16
  store ptr %0, ptr %35, align 8
  store ptr %1, ptr %36, align 8
  store i32 %2, ptr %37, align 4
  %49 = load ptr, ptr %35, align 8
  %50 = getelementptr inbounds i32, ptr %49, i64 7
  %51 = load i32, ptr %50, align 4
  %52 = mul i32 2, %51
  %53 = load ptr, ptr %35, align 8
  %54 = getelementptr inbounds i32, ptr %53, i64 6
  %55 = load i32, ptr %54, align 4
  %56 = mul i32 2, %55
  %57 = load ptr, ptr %35, align 8
  %58 = getelementptr inbounds i32, ptr %57, i64 5
  %59 = load i32, ptr %58, align 4
  %60 = load ptr, ptr %35, align 8
  %61 = getelementptr inbounds i32, ptr %60, i64 4
  %62 = load i32, ptr %61, align 4
  store i32 %52, ptr %20, align 4
  store i32 %56, ptr %21, align 4
  store i32 %59, ptr %22, align 4
  store i32 %62, ptr %23, align 4
  %63 = load i32, ptr %23, align 4
  %64 = insertelement <4 x i32> poison, i32 %63, i32 0
  %65 = load i32, ptr %22, align 4
  %66 = insertelement <4 x i32> %64, i32 %65, i32 1
  %67 = load i32, ptr %21, align 4
  %68 = insertelement <4 x i32> %66, i32 %67, i32 2
  %69 = load i32, ptr %20, align 4
  %70 = insertelement <4 x i32> %68, i32 %69, i32 3
  store <4 x i32> %70, ptr %24, align 16
  %71 = load <4 x i32>, ptr %24, align 16
  %72 = bitcast <4 x i32> %71 to <2 x i64>
  %73 = load ptr, ptr %36, align 8
  %74 = getelementptr inbounds i32, ptr %73, i64 7
  %75 = load i32, ptr %74, align 4
  %76 = mul i32 2, %75
  %77 = load ptr, ptr %36, align 8
  %78 = getelementptr inbounds i32, ptr %77, i64 6
  %79 = load i32, ptr %78, align 4
  %80 = mul i32 2, %79
  %81 = load ptr, ptr %36, align 8
  %82 = getelementptr inbounds i32, ptr %81, i64 5
  %83 = load i32, ptr %82, align 4
  %84 = load ptr, ptr %36, align 8
  %85 = getelementptr inbounds i32, ptr %84, i64 4
  %86 = load i32, ptr %85, align 4
  store i32 %76, ptr %25, align 4
  store i32 %80, ptr %26, align 4
  store i32 %83, ptr %27, align 4
  store i32 %86, ptr %28, align 4
  %87 = load i32, ptr %28, align 4
  %88 = insertelement <4 x i32> poison, i32 %87, i32 0
  %89 = load i32, ptr %27, align 4
  %90 = insertelement <4 x i32> %88, i32 %89, i32 1
  %91 = load i32, ptr %26, align 4
  %92 = insertelement <4 x i32> %90, i32 %91, i32 2
  %93 = load i32, ptr %25, align 4
  %94 = insertelement <4 x i32> %92, i32 %93, i32 3
  store <4 x i32> %94, ptr %29, align 16
  %95 = load <4 x i32>, ptr %29, align 16
  %96 = bitcast <4 x i32> %95 to <2 x i64>
  store <2 x i64> %72, ptr %4, align 16
  store <2 x i64> %96, ptr %5, align 16
  %97 = load <2 x i64>, ptr %4, align 16
  %98 = bitcast <2 x i64> %97 to <4 x i32>
  %99 = load <2 x i64>, ptr %5, align 16
  %100 = bitcast <2 x i64> %99 to <4 x i32>
  %101 = add <4 x i32> %98, %100
  %102 = bitcast <4 x i32> %101 to <2 x i64>
  store <2 x i64> %102, ptr %39, align 16
  store i32 8, ptr %38, align 4
  br label %103

103:                                              ; preds = %194, %3
  %104 = load i32, ptr %38, align 4
  %105 = add nsw i32 %104, 8
  %106 = load i32, ptr %37, align 4
  %107 = icmp sle i32 %105, %106
  br i1 %107, label %108, label %197

108:                                              ; preds = %103
  %109 = load i32, ptr %38, align 4
  %110 = sub nsw i32 %109, 2
  %111 = ashr i32 %110, 1
  store i32 %111, ptr %40, align 4
  %112 = load ptr, ptr %35, align 8
  %113 = load i32, ptr %38, align 4
  %114 = sext i32 %113 to i64
  %115 = getelementptr inbounds i32, ptr %112, i64 %114
  store ptr %115, ptr %16, align 8
  %116 = load ptr, ptr %16, align 8
  %117 = load <2 x i64>, ptr %116, align 1
  store <2 x i64> %117, ptr %41, align 16
  %118 = load ptr, ptr %35, align 8
  %119 = load i32, ptr %38, align 4
  %120 = add nsw i32 %119, 4
  %121 = sext i32 %120 to i64
  %122 = getelementptr inbounds i32, ptr %118, i64 %121
  store ptr %122, ptr %17, align 8
  %123 = load ptr, ptr %17, align 8
  %124 = load <2 x i64>, ptr %123, align 1
  store <2 x i64> %124, ptr %42, align 16
  %125 = load ptr, ptr %36, align 8
  %126 = load i32, ptr %38, align 4
  %127 = sext i32 %126 to i64
  %128 = getelementptr inbounds i32, ptr %125, i64 %127
  store ptr %128, ptr %18, align 8
  %129 = load ptr, ptr %18, align 8
  %130 = load <2 x i64>, ptr %129, align 1
  store <2 x i64> %130, ptr %43, align 16
  %131 = load ptr, ptr %36, align 8
  %132 = load i32, ptr %38, align 4
  %133 = add nsw i32 %132, 4
  %134 = sext i32 %133 to i64
  %135 = getelementptr inbounds i32, ptr %131, i64 %134
  store ptr %135, ptr %19, align 8
  %136 = load ptr, ptr %19, align 8
  %137 = load <2 x i64>, ptr %136, align 1
  store <2 x i64> %137, ptr %44, align 16
  %138 = load i32, ptr %40, align 4
  %139 = add nsw i32 %138, 3
  %140 = load i32, ptr %40, align 4
  %141 = add nsw i32 %140, 2
  %142 = load i32, ptr %40, align 4
  %143 = add nsw i32 %142, 1
  %144 = load i32, ptr %40, align 4
  store i32 %139, ptr %30, align 4
  store i32 %141, ptr %31, align 4
  store i32 %143, ptr %32, align 4
  store i32 %144, ptr %33, align 4
  %145 = load i32, ptr %33, align 4
  %146 = insertelement <4 x i32> poison, i32 %145, i32 0
  %147 = load i32, ptr %32, align 4
  %148 = insertelement <4 x i32> %146, i32 %147, i32 1
  %149 = load i32, ptr %31, align 4
  %150 = insertelement <4 x i32> %148, i32 %149, i32 2
  %151 = load i32, ptr %30, align 4
  %152 = insertelement <4 x i32> %150, i32 %151, i32 3
  store <4 x i32> %152, ptr %34, align 16
  %153 = load <4 x i32>, ptr %34, align 16
  %154 = bitcast <4 x i32> %153 to <2 x i64>
  store <2 x i64> %154, ptr %45, align 16
  %155 = load <2 x i64>, ptr %41, align 16
  %156 = load <2 x i64>, ptr %42, align 16
  store <2 x i64> %155, ptr %12, align 16
  store <2 x i64> %156, ptr %13, align 16
  %157 = load <2 x i64>, ptr %12, align 16
  %158 = bitcast <2 x i64> %157 to <4 x i32>
  %159 = load <2 x i64>, ptr %13, align 16
  %160 = bitcast <2 x i64> %159 to <4 x i32>
  %161 = call <4 x i32> @llvm.x86.ssse3.phadd.d.128(<4 x i32> %158, <4 x i32> %160)
  %162 = bitcast <4 x i32> %161 to <2 x i64>
  store <2 x i64> %162, ptr %46, align 16
  %163 = load <2 x i64>, ptr %43, align 16
  %164 = load <2 x i64>, ptr %44, align 16
  store <2 x i64> %163, ptr %14, align 16
  store <2 x i64> %164, ptr %15, align 16
  %165 = load <2 x i64>, ptr %14, align 16
  %166 = bitcast <2 x i64> %165 to <4 x i32>
  %167 = load <2 x i64>, ptr %15, align 16
  %168 = bitcast <2 x i64> %167 to <4 x i32>
  %169 = call <4 x i32> @llvm.x86.ssse3.phadd.d.128(<4 x i32> %166, <4 x i32> %168)
  %170 = bitcast <4 x i32> %169 to <2 x i64>
  store <2 x i64> %170, ptr %47, align 16
  %171 = load <2 x i64>, ptr %46, align 16
  %172 = load <2 x i64>, ptr %47, align 16
  store <2 x i64> %171, ptr %6, align 16
  store <2 x i64> %172, ptr %7, align 16
  %173 = load <2 x i64>, ptr %6, align 16
  %174 = bitcast <2 x i64> %173 to <4 x i32>
  %175 = load <2 x i64>, ptr %7, align 16
  %176 = bitcast <2 x i64> %175 to <4 x i32>
  %177 = add <4 x i32> %174, %176
  %178 = bitcast <4 x i32> %177 to <2 x i64>
  %179 = load <2 x i64>, ptr %45, align 16
  store <2 x i64> %178, ptr %10, align 16
  store <2 x i64> %179, ptr %11, align 16
  %180 = load <2 x i64>, ptr %10, align 16
  %181 = bitcast <2 x i64> %180 to <4 x i32>
  %182 = load <2 x i64>, ptr %11, align 16
  %183 = bitcast <2 x i64> %182 to <4 x i32>
  %184 = mul <4 x i32> %181, %183
  %185 = bitcast <4 x i32> %184 to <2 x i64>
  store <2 x i64> %185, ptr %48, align 16
  %186 = load <2 x i64>, ptr %48, align 16
  %187 = load <2 x i64>, ptr %39, align 16
  store <2 x i64> %186, ptr %8, align 16
  store <2 x i64> %187, ptr %9, align 16
  %188 = load <2 x i64>, ptr %8, align 16
  %189 = bitcast <2 x i64> %188 to <4 x i32>
  %190 = load <2 x i64>, ptr %9, align 16
  %191 = bitcast <2 x i64> %190 to <4 x i32>
  %192 = add <4 x i32> %189, %191
  %193 = bitcast <4 x i32> %192 to <2 x i64>
  store <2 x i64> %193, ptr %39, align 16
  br label %194

194:                                              ; preds = %108
  %195 = load i32, ptr %38, align 4
  %196 = add nsw i32 %195, 8
  store i32 %196, ptr %38, align 4
  br label %103, !llvm.loop !6

197:                                              ; preds = %103
  %198 = load <2 x i64>, ptr %39, align 16
  %199 = call i32 @HorizontalSum_SSE41(<2 x i64> noundef %198)
  ret i32 %199
}