; Function Attrs: nofree norecurse nosync nounwind memory(argmem: read) uwtable
define internal i32 @ExtraCostCombined_SSE41(ptr nocapture noundef readonly %0, ptr nocapture noundef readonly %1, i32 noundef %2) #1 {
  %4 = getelementptr inbounds i8, ptr %0, i64 24
  %5 = load <2 x i32>, ptr %4, align 4
  %6 = getelementptr inbounds i8, ptr %0, i64 16
  %7 = load <2 x i32>, ptr %6, align 4
  %8 = getelementptr inbounds i8, ptr %1, i64 24
  %9 = load <2 x i32>, ptr %8, align 4
  %10 = getelementptr inbounds i8, ptr %1, i64 16
  %11 = load <2 x i32>, ptr %10, align 4
  %12 = add <2 x i32> %11, %7
  %13 = add <2 x i32> %9, %5
  %14 = shl <2 x i32> %13, <i32 1, i32 1>
  %15 = shufflevector <2 x i32> %12, <2 x i32> %14, <4 x i32> <i32 0, i32 1, i32 2, i32 3>
  %.not66 = icmp slt i32 %2, 16
  br i1 %.not66, label %._crit_edge, label %.lr.ph.preheader

.lr.ph.preheader:                                 ; preds = %3
  %16 = zext nneg i32 %2 to i64
  br label %.lr.ph

.lr.ph:                                           ; preds = %.lr.ph.preheader, %.lr.ph
  %indvars.iv69 = phi i64 [ 8, %.lr.ph.preheader ], [ %indvars.iv.next70, %.lr.ph ]
  %indvars.iv = phi i64 [ 16, %.lr.ph.preheader ], [ %indvars.iv.next, %.lr.ph ]
  %.064.in67 = phi <4 x i32> [ %15, %.lr.ph.preheader ], [ %40, %.lr.ph ]
  %17 = trunc i64 %indvars.iv69 to i32
  %18 = add i32 %17, -2
  %19 = ashr exact i32 %18, 1
  %20 = getelementptr inbounds i32, ptr %0, i64 %indvars.iv69
  %21 = load <4 x i32>, ptr %20, align 1
  %22 = or disjoint i64 %indvars.iv69, 4
  %23 = getelementptr inbounds i32, ptr %0, i64 %22
  %24 = load <4 x i32>, ptr %23, align 1
  %25 = getelementptr inbounds i32, ptr %1, i64 %indvars.iv69
  %26 = load <4 x i32>, ptr %25, align 1
  %27 = getelementptr inbounds i32, ptr %1, i64 %22
  %28 = load <4 x i32>, ptr %27, align 1
  %29 = add nsw i32 %19, 3
  %30 = add nsw i32 %19, 2
  %31 = add nsw i32 %19, 1
  %32 = insertelement <4 x i32> poison, i32 %19, i64 0
  %33 = insertelement <4 x i32> %32, i32 %31, i64 1
  %34 = insertelement <4 x i32> %33, i32 %30, i64 2
  %35 = insertelement <4 x i32> %34, i32 %29, i64 3
  %36 = tail call <4 x i32> @llvm.x86.ssse3.phadd.d.128(<4 x i32> %21, <4 x i32> %24)
  %37 = tail call <4 x i32> @llvm.x86.ssse3.phadd.d.128(<4 x i32> %26, <4 x i32> %28)
  %38 = add <4 x i32> %37, %36
  %39 = mul <4 x i32> %38, %35
  %40 = add <4 x i32> %39, %.064.in67
  %indvars.iv.next = add nuw nsw i64 %indvars.iv, 8
  %.not = icmp ugt i64 %indvars.iv.next, %16
  %indvars.iv.next70 = add nuw nsw i64 %indvars.iv69, 8
  br i1 %.not, label %._crit_edge, label %.lr.ph, !llvm.loop !6

._crit_edge:                                      ; preds = %.lr.ph, %3
  %.064.in.lcssa = phi <4 x i32> [ %15, %3 ], [ %40, %.lr.ph ]
  %41 = shufflevector <4 x i32> %.064.in.lcssa, <4 x i32> <i32 0, i32 0, i32 poison, i32 poison>, <4 x i32> <i32 2, i32 3, i32 4, i32 5>
  %42 = add <4 x i32> %.064.in.lcssa, %41
  %43 = shufflevector <4 x i32> %42, <4 x i32> poison, <4 x i32> <i32 1, i32 poison, i32 poison, i32 poison>
  %44 = add <4 x i32> %42, %43
  %45 = extractelement <4 x i32> %44, i64 0
  ret i32 %45
}